; Function Attrs: mustprogress uwtable
define void @_ZN16FilterDockDialog25on_helpPushButton_clickedEv(ptr noundef nonnull align 8 dereferenceable(1048) %0) local_unnamed_addr #9 align 2 {
  %2 = getelementptr inbounds i8, ptr %0, i64 48
  %3 = load ptr, ptr %2, align 8
  %4 = getelementptr inbounds i8, ptr %3, i64 96
  %5 = load ptr, ptr %4, align 8
  tail call void @_ZN22RichParameterListFrame10toggleHelpEv(ptr noundef nonnull align 8 dereferenceable(200) %5)
  %6 = load ptr, ptr %2, align 8
  %7 = getelementptr inbounds i8, ptr %6, i64 96
  %8 = load ptr, ptr %7, align 8
  tail call void @_ZN7QWidget14updateGeometryEv(ptr noundef nonnull align 8 dereferenceable(48) %8)
  %9 = load ptr, ptr %2, align 8
  %10 = getelementptr inbounds i8, ptr %9, i64 96
  %11 = load ptr, ptr %10, align 8
  tail call void @_ZN7QWidget10adjustSizeEv(ptr noundef nonnull align 8 dereferenceable(48) %11)
  tail call void @_ZN7QWidget14updateGeometryEv(ptr noundef nonnull align 8 dereferenceable(48) %0)
  ret void
}